target datalayout = "e-m:e-p270:32:32-p271:32:32-p272:64:64-i64:64-i128:128-f80:128-n8:16:32:64-S128"
target triple = "x86_64-pc-linux-gnu"

%struct.rdp_field_info_t = type { ptr, i32, ptr, i32, i32, ptr }
%struct._address = type { i32, i32, ptr, ptr }
%struct._rdp_conv_info_t = type { i32, i32, i32, i32, i32, %struct._rdp_server_address, i8, i8, [32 x %struct._rdp_channel_def] }
%struct._rdp_server_address = type { %struct._address, i16 }
%struct._rdp_channel_def = type { i32, ptr, i32 }

@hf_rdp_flags = internal global i32 0, align 4
@hf_rdp_flagsPkt = internal global i32 0, align 4
@hf_rdp_flagsEncrypt = internal global i32 0, align 4
@hf_rdp_flagsResetSeqno = internal global i32 0, align 4
@hf_rdp_flagsIgnoreSeqno = internal global i32 0, align 4
@hf_rdp_flagsLicenseEncrypt = internal global i32 0, align 4
@hf_rdp_flagsSecureChecksum = internal global i32 0, align 4
@hf_rdp_flagsFlagsHiValid = internal global i32 0, align 4
@hf_rdp_flagsHi = internal global i32 0, align 4
@ett_rdp_flags = internal global i32 0, align 4

; Function Attrs: null_pointer_is_valid sspstrong uwtable
define internal i32 @dissect_rdp_basicSecurityHeader(ptr noundef %0, i32 noundef %1, ptr noundef %2, ptr noundef %3, ptr noundef %4) #0 {
  %6 = alloca ptr, align 8
  %7 = alloca i32, align 4
  %8 = alloca ptr, align 8
  %9 = alloca ptr, align 8
  %10 = alloca ptr, align 8
  %11 = alloca i32, align 4
  %12 = alloca [8 x %struct.rdp_field_info_t], align 16
  %13 = alloca [3 x %struct.rdp_field_info_t], align 16
  store ptr %0, ptr %6, align 8
  store i32 %1, ptr %7, align 4
  store ptr %2, ptr %8, align 8
  store ptr %3, ptr %9, align 8
  store ptr %4, ptr %10, align 8
  call void @llvm.lifetime.start.p0(i64 4, ptr %11) #15
  store i32 0, ptr %11, align 4
  call void @llvm.lifetime.start.p0(i64 320, ptr %12) #15
  %14 = getelementptr inbounds nuw %struct.rdp_field_info_t, ptr %12, i32 0, i32 0
  store ptr @hf_rdp_flagsPkt, ptr %14, align 8
  %15 = getelementptr inbounds nuw %struct.rdp_field_info_t, ptr %12, i32 0, i32 1
  store i32 2, ptr %15, align 8
  %16 = getelementptr i8, ptr %12, i64 12
  call void @llvm.memset.p0.i64(ptr align 4 %16, i8 0, i64 4, i1 false)
  %17 = getelementptr inbounds nuw %struct.rdp_field_info_t, ptr %12, i32 0, i32 2
  store ptr %11, ptr %17, align 8
  %18 = getelementptr inbounds nuw %struct.rdp_field_info_t, ptr %12, i32 0, i32 3
  store i32 0, ptr %18, align 8
  %19 = getelementptr inbounds nuw %struct.rdp_field_info_t, ptr %12, i32 0, i32 4
  store i32 16, ptr %19, align 4
  %20 = getelementptr inbounds nuw %struct.rdp_field_info_t, ptr %12, i32 0, i32 5
  store ptr null, ptr %20, align 8
  %21 = getelementptr inbounds %struct.rdp_field_info_t, ptr %12, i64 1
  %22 = getelementptr inbounds nuw %struct.rdp_field_info_t, ptr %21, i32 0, i32 0
  store ptr @hf_rdp_flagsEncrypt, ptr %22, align 8
  %23 = getelementptr inbounds nuw %struct.rdp_field_info_t, ptr %21, i32 0, i32 1
  store i32 2, ptr %23, align 8
  %24 = getelementptr i8, ptr %21, i64 12
  call void @llvm.memset.p0.i64(ptr align 4 %24, i8 0, i64 4, i1 false)
  %25 = getelementptr inbounds nuw %struct.rdp_field_info_t, ptr %21, i32 0, i32 2
  store ptr null, ptr %25, align 8
  %26 = getelementptr inbounds nuw %struct.rdp_field_info_t, ptr %21, i32 0, i32 3
  store i32 0, ptr %26, align 8
  %27 = getelementptr inbounds nuw %struct.rdp_field_info_t, ptr %21, i32 0, i32 4
  store i32 16, ptr %27, align 4
  %28 = getelementptr inbounds nuw %struct.rdp_field_info_t, ptr %21, i32 0, i32 5
  store ptr null, ptr %28, align 8
  %29 = getelementptr inbounds %struct.rdp_field_info_t, ptr %12, i64 2
  %30 = getelementptr inbounds nuw %struct.rdp_field_info_t, ptr %29, i32 0, i32 0
  store ptr @hf_rdp_flagsResetSeqno, ptr %30, align 8
  %31 = getelementptr inbounds nuw %struct.rdp_field_info_t, ptr %29, i32 0, i32 1
  store i32 2, ptr %31, align 8
  %32 = getelementptr i8, ptr %29, i64 12
  call void @llvm.memset.p0.i64(ptr align 4 %32, i8 0, i64 4, i1 false)
  %33 = getelementptr inbounds nuw %struct.rdp_field_info_t, ptr %29, i32 0, i32 2
  store ptr null, ptr %33, align 8
  %34 = getelementptr inbounds nuw %struct.rdp_field_info_t, ptr %29, i32 0, i32 3
  store i32 0, ptr %34, align 8
  %35 = getelementptr inbounds nuw %struct.rdp_field_info_t, ptr %29, i32 0, i32 4
  store i32 16, ptr %35, align 4
  %36 = getelementptr inbounds nuw %struct.rdp_field_info_t, ptr %29, i32 0, i32 5
  store ptr null, ptr %36, align 8
  %37 = getelementptr inbounds %struct.rdp_field_info_t, ptr %12, i64 3
  %38 = getelementptr inbounds nuw %struct.rdp_field_info_t, ptr %37, i32 0, i32 0
  store ptr @hf_rdp_flagsIgnoreSeqno, ptr %38, align 8
  %39 = getelementptr inbounds nuw %struct.rdp_field_info_t, ptr %37, i32 0, i32 1
  store i32 2, ptr %39, align 8
  %40 = getelementptr i8, ptr %37, i64 12
  call void @llvm.memset.p0.i64(ptr align 4 %40, i8 0, i64 4, i1 false)
  %41 = getelementptr inbounds nuw %struct.rdp_field_info_t, ptr %37, i32 0, i32 2
  store ptr null, ptr %41, align 8
  %42 = getelementptr inbounds nuw %struct.rdp_field_info_t, ptr %37, i32 0, i32 3
  store i32 0, ptr %42, align 8
  %43 = getelementptr inbounds nuw %struct.rdp_field_info_t, ptr %37, i32 0, i32 4
  store i32 16, ptr %43, align 4
  %44 = getelementptr inbounds nuw %struct.rdp_field_info_t, ptr %37, i32 0, i32 5
  store ptr null, ptr %44, align 8
  %45 = getelementptr inbounds %struct.rdp_field_info_t, ptr %12, i64 4
  %46 = getelementptr inbounds nuw %struct.rdp_field_info_t, ptr %45, i32 0, i32 0
  store ptr @hf_rdp_flagsLicenseEncrypt, ptr %46, align 8
  %47 = getelementptr inbounds nuw %struct.rdp_field_info_t, ptr %45, i32 0, i32 1
  store i32 2, ptr %47, align 8
  %48 = getelementptr i8, ptr %45, i64 12
  call void @llvm.memset.p0.i64(ptr align 4 %48, i8 0, i64 4, i1 false)
  %49 = getelementptr inbounds nuw %struct.rdp_field_info_t, ptr %45, i32 0, i32 2
  store ptr null, ptr %49, align 8
  %50 = getelementptr inbounds nuw %struct.rdp_field_info_t, ptr %45, i32 0, i32 3
  store i32 0, ptr %50, align 8
  %51 = getelementptr inbounds nuw %struct.rdp_field_info_t, ptr %45, i32 0, i32 4
  store i32 16, ptr %51, align 4
  %52 = getelementptr inbounds nuw %struct.rdp_field_info_t, ptr %45, i32 0, i32 5
  store ptr null, ptr %52, align 8
  %53 = getelementptr inbounds %struct.rdp_field_info_t, ptr %12, i64 5
  %54 = getelementptr inbounds nuw %struct.rdp_field_info_t, ptr %53, i32 0, i32 0
  store ptr @hf_rdp_flagsSecureChecksum, ptr %54, align 8
  %55 = getelementptr inbounds nuw %struct.rdp_field_info_t, ptr %53, i32 0, i32 1
  store i32 2, ptr %55, align 8
  %56 = getelementptr i8, ptr %53, i64 12
  call void @llvm.memset.p0.i64(ptr align 4 %56, i8 0, i64 4, i1 false)
  %57 = getelementptr inbounds nuw %struct.rdp_field_info_t, ptr %53, i32 0, i32 2
  store ptr null, ptr %57, align 8
  %58 = getelementptr inbounds nuw %struct.rdp_field_info_t, ptr %53, i32 0, i32 3
  store i32 0, ptr %58, align 8
  %59 = getelementptr inbounds nuw %struct.rdp_field_info_t, ptr %53, i32 0, i32 4
  store i32 16, ptr %59, align 4
  %60 = getelementptr inbounds nuw %struct.rdp_field_info_t, ptr %53, i32 0, i32 5
  store ptr null, ptr %60, align 8
  %61 = getelementptr inbounds %struct.rdp_field_info_t, ptr %12, i64 6
  %62 = getelementptr inbounds nuw %struct.rdp_field_info_t, ptr %61, i32 0, i32 0
  store ptr @hf_rdp_flagsFlagsHiValid, ptr %62, align 8
  %63 = getelementptr inbounds nuw %struct.rdp_field_info_t, ptr %61, i32 0, i32 1
  store i32 2, ptr %63, align 8
  %64 = getelementptr i8, ptr %61, i64 12
  call void @llvm.memset.p0.i64(ptr align 4 %64, i8 0, i64 4, i1 false)
  %65 = getelementptr inbounds nuw %struct.rdp_field_info_t, ptr %61, i32 0, i32 2
  store ptr null, ptr %65, align 8
  %66 = getelementptr inbounds nuw %struct.rdp_field_info_t, ptr %61, i32 0, i32 3
  store i32 0, ptr %66, align 8
  %67 = getelementptr inbounds nuw %struct.rdp_field_info_t, ptr %61, i32 0, i32 4
  store i32 16, ptr %67, align 4
  %68 = getelementptr inbounds nuw %struct.rdp_field_info_t, ptr %61, i32 0, i32 5
  store ptr null, ptr %68, align 8
  %69 = getelementptr inbounds %struct.rdp_field_info_t, ptr %12, i64 7
  call void @llvm.memset.p0.i64(ptr align 8 %69, i8 0, i64 40, i1 false)
  call void @llvm.lifetime.start.p0(i64 120, ptr %13) #15
  %70 = getelementptr inbounds nuw %struct.rdp_field_info_t, ptr %13, i32 0, i32 0
  store ptr @hf_rdp_flags, ptr %70, align 8
  %71 = getelementptr inbounds nuw %struct.rdp_field_info_t, ptr %13, i32 0, i32 1
  store i32 2, ptr %71, align 8
  %72 = getelementptr i8, ptr %13, i64 12
  call void @llvm.memset.p0.i64(ptr align 4 %72, i8 0, i64 4, i1 false)
  %73 = getelementptr inbounds nuw %struct.rdp_field_info_t, ptr %13, i32 0, i32 2
  store ptr null, ptr %73, align 8
  %74 = getelementptr inbounds nuw %struct.rdp_field_info_t, ptr %13, i32 0, i32 3
  %75 = load i32, ptr @ett_rdp_flags, align 4
  store i32 %75, ptr %74, align 8
  %76 = getelementptr inbounds nuw %struct.rdp_field_info_t, ptr %13, i32 0, i32 4
  store i32 32, ptr %76, align 4
  %77 = getelementptr inbounds nuw %struct.rdp_field_info_t, ptr %13, i32 0, i32 5
  %78 = getelementptr inbounds [8 x %struct.rdp_field_info_t], ptr %12, i64 0, i64 0
  store ptr %78, ptr %77, align 8
  %79 = getelementptr inbounds %struct.rdp_field_info_t, ptr %13, i64 1
  %80 = getelementptr inbounds nuw %struct.rdp_field_info_t, ptr %79, i32 0, i32 0
  store ptr @hf_rdp_flagsHi, ptr %80, align 8
  %81 = getelementptr inbounds nuw %struct.rdp_field_info_t, ptr %79, i32 0, i32 1
  store i32 2, ptr %81, align 8
  %82 = getelementptr i8, ptr %79, i64 12
  call void @llvm.memset.p0.i64(ptr align 4 %82, i8 0, i64 4, i1 false)
  %83 = getelementptr inbounds nuw %struct.rdp_field_info_t, ptr %79, i32 0, i32 2
  store ptr null, ptr %83, align 8
  %84 = getelementptr inbounds nuw %struct.rdp_field_info_t, ptr %79, i32 0, i32 3
  store i32 0, ptr %84, align 8
  %85 = getelementptr inbounds nuw %struct.rdp_field_info_t, ptr %79, i32 0, i32 4
  store i32 0, ptr %85, align 4
  %86 = getelementptr inbounds nuw %struct.rdp_field_info_t, ptr %79, i32 0, i32 5
  store ptr null, ptr %86, align 8
  %87 = getelementptr inbounds %struct.rdp_field_info_t, ptr %13, i64 2
  call void @llvm.memset.p0.i64(ptr align 8 %87, i8 0, i64 40, i1 false)
  %88 = load ptr, ptr %6, align 8
  %89 = load i32, ptr %7, align 4
  %90 = load ptr, ptr %8, align 8
  %91 = load ptr, ptr %9, align 8
  %92 = getelementptr inbounds [3 x %struct.rdp_field_info_t], ptr %13, i64 0, i64 0
  %93 = call i32 @dissect_rdp_fields(ptr noundef %88, i32 noundef %89, ptr noundef %90, ptr noundef %91, ptr noundef %92, i32 noundef 0)
  store i32 %93, ptr %7, align 4
  %94 = load ptr, ptr %10, align 8
  %95 = icmp ne ptr %94, null
  br i1 %95, label %96, label %99

96:                                               ; preds = %5
  %97 = load i32, ptr %11, align 4
  %98 = load ptr, ptr %10, align 8
  store i32 %97, ptr %98, align 4
  br label %99

99:                                               ; preds = %96, %5
  %100 = load i32, ptr %7, align 4
  call void @llvm.lifetime.end.p0(i64 120, ptr %13) #15
  call void @llvm.lifetime.end.p0(i64 320, ptr %12) #15
  call void @llvm.lifetime.end.p0(i64 4, ptr %11) #15
  ret i32 %100
}

; Function Attrs: null_pointer_is_valid sspstrong uwtable
define internal i32 @dissect_rdp_securityHeader(ptr noundef %0, i32 noundef %1, ptr noundef %2, ptr noundef %3, ptr noundef %4, i1 noundef zeroext %5, ptr noundef %6) #0 {
  %8 = alloca ptr, align 8
  %9 = alloca i32, align 4
  %10 = alloca ptr, align 8
  %11 = alloca ptr, align 8
  %12 = alloca ptr, align 8
  %13 = alloca i8, align 1
  %14 = alloca ptr, align 8
  %15 = alloca [5 x %struct.rdp_field_info_t], align 16
  %16 = alloca [2 x %struct.rdp_field_info_t], align 16
  %17 = alloca ptr, align 8
  store ptr %0, ptr %8, align 8
  store i32 %1, ptr %9, align 4
  store ptr %2, ptr %10, align 8
  store ptr %3, ptr %11, align 8
  store ptr %4, ptr %12, align 8
  %18 = zext i1 %5 to i8
  store i8 %18, ptr %13, align 1
  store ptr %6, ptr %14, align 8
  call void @llvm.lifetime.start.p0(i64 200, ptr %15) #15
  call void @llvm.memcpy.p0.p0.i64(ptr align 16 %15, ptr align 16 @__const.dissect_rdp_securityHeader.fips_fields, i64 200, i1 false)
  call void @llvm.lifetime.start.p0(i64 80, ptr %16) #15
  call void @llvm.memcpy.p0.p0.i64(ptr align 16 %16, ptr align 16 @__const.dissect_rdp_securityHeader.enc_fields, i64 80, i1 false)
  call void @llvm.lifetime.start.p0(i64 8, ptr %17) #15
  store ptr null, ptr %17, align 8
  %19 = load ptr, ptr %12, align 8
  %20 = icmp ne ptr %19, null
  br i1 %20, label %21, label %63

21:                                               ; preds = %7
  %22 = load i8, ptr %13, align 1, !range !6, !noundef !7
  %23 = trunc i8 %22 to i1
  br i1 %23, label %29, label %24

24:                                               ; preds = %21
  %25 = load ptr, ptr %12, align 8
  %26 = getelementptr inbounds nuw %struct._rdp_conv_info_t, ptr %25, i32 0, i32 3
  %27 = load i32, ptr %26, align 4
  %28 = icmp ne i32 %27, 0
  br i1 %28, label %29, label %36

29:                                               ; preds = %24, %21
  %30 = load ptr, ptr %8, align 8
  %31 = load i32, ptr %9, align 4
  %32 = load ptr, ptr %10, align 8
  %33 = load ptr, ptr %11, align 8
  %34 = load ptr, ptr %14, align 8
  %35 = call i32 @dissect_rdp_basicSecurityHeader(ptr noundef %30, i32 noundef %31, ptr noundef %32, ptr noundef %33, ptr noundef %34)
  store i32 %35, ptr %9, align 4
  br label %36

36:                                               ; preds = %29, %24
  %37 = load ptr, ptr %12, align 8
  %38 = getelementptr inbounds nuw %struct._rdp_conv_info_t, ptr %37, i32 0, i32 2
  %39 = load i32, ptr %38, align 8
  %40 = and i32 %39, 11
  %41 = icmp ne i32 %40, 0
  br i1 %41, label %42, label %44

42:                                               ; preds = %36
  %43 = getelementptr inbounds [2 x %struct.rdp_field_info_t], ptr %16, i64 0, i64 0
  store ptr %43, ptr %17, align 8
  br label %52

44:                                               ; preds = %36
  %45 = load ptr, ptr %12, align 8
  %46 = getelementptr inbounds nuw %struct._rdp_conv_info_t, ptr %45, i32 0, i32 2
  %47 = load i32, ptr %46, align 8
  %48 = icmp eq i32 %47, 16
  br i1 %48, label %49, label %51

49:                                               ; preds = %44
  %50 = getelementptr inbounds [5 x %struct.rdp_field_info_t], ptr %15, i64 0, i64 0
  store ptr %50, ptr %17, align 8
  br label %51

51:                                               ; preds = %49, %44
  br label %52

52:                                               ; preds = %51, %42
  %53 = load ptr, ptr %17, align 8
  %54 = icmp ne ptr %53, null
  br i1 %54, label %55, label %62

55:                                               ; preds = %52
  %56 = load ptr, ptr %8, align 8
  %57 = load i32, ptr %9, align 4
  %58 = load ptr, ptr %10, align 8
  %59 = load ptr, ptr %11, align 8
  %60 = load ptr, ptr %17, align 8
  %61 = call i32 @dissect_rdp_fields(ptr noundef %56, i32 noundef %57, ptr noundef %58, ptr noundef %59, ptr noundef %60, i32 noundef 0)
  store i32 %61, ptr %9, align 4
  br label %62

62:                                               ; preds = %55, %52
  br label %63

63:                                               ; preds = %62, %7
  %64 = load i32, ptr %9, align 4
  call void @llvm.lifetime.end.p0(i64 8, ptr %17) #15
  call void @llvm.lifetime.end.p0(i64 80, ptr %16) #15
  call void @llvm.lifetime.end.p0(i64 200, ptr %15) #15
  ret i32 %64
}