; Function Attrs: null_pointer_is_valid sspstrong uwtable
define internal fastcc i32 @dissect_rdp_securityHeader(ptr noundef %0, ptr noundef %1, ptr noundef %2, ptr noundef readonly captures(address_is_null) %3, i1 noundef zeroext %4, ptr noundef writeonly captures(address_is_null) %5) unnamed_addr #0 {
  %7 = alloca i32, align 4
  %8 = alloca [8 x %struct.rdp_field_info_t], align 16
  %9 = alloca [3 x %struct.rdp_field_info_t], align 16
  %10 = alloca [5 x %struct.rdp_field_info_t], align 16
  %11 = alloca [2 x %struct.rdp_field_info_t], align 16
  call void @llvm.lifetime.start.p0(i64 200, ptr nonnull %10) #14
  call void @llvm.memcpy.p0.p0.i64(ptr noundef nonnull align 16 dereferenceable(200) %10, ptr noundef nonnull align 16 dereferenceable(200) @__const.dissect_rdp_securityHeader.fips_fields, i64 200, i1 false)
  call void @llvm.lifetime.start.p0(i64 80, ptr nonnull %11) #14
  call void @llvm.memcpy.p0.p0.i64(ptr noundef nonnull align 16 dereferenceable(80) %11, ptr noundef nonnull align 16 dereferenceable(80) @__const.dissect_rdp_securityHeader.enc_fields, i64 80, i1 false)
  %.not = icmp eq ptr %3, null
  br i1 %.not, label %73, label %12

12:                                               ; preds = %6
  br i1 %4, label %16, label %13

13:                                               ; preds = %12
  %14 = getelementptr inbounds nuw i8, ptr %3, i64 12
  %15 = load i32, ptr %14, align 4
  %.not18 = icmp eq i32 %15, 0
  br i1 %.not18, label %66, label %16

16:                                               ; preds = %13, %12
  call void @llvm.lifetime.start.p0(i64 4, ptr nonnull %7) #14
  store i32 0, ptr %7, align 4
  call void @llvm.lifetime.start.p0(i64 320, ptr nonnull %8) #14
  store ptr @hf_rdp_flagsPkt, ptr %8, align 16
  %17 = getelementptr inbounds nuw i8, ptr %8, i64 8
  store i32 2, ptr %17, align 8
  %18 = getelementptr inbounds nuw i8, ptr %8, i64 12
  store i32 0, ptr %18, align 4
  %19 = getelementptr inbounds nuw i8, ptr %8, i64 16
  store ptr %7, ptr %19, align 16
  %20 = getelementptr inbounds nuw i8, ptr %8, i64 24
  store i32 0, ptr %20, align 8
  %21 = getelementptr inbounds nuw i8, ptr %8, i64 28
  store i32 16, ptr %21, align 4
  %22 = getelementptr inbounds nuw i8, ptr %8, i64 32
  store ptr null, ptr %22, align 16
  %23 = getelementptr inbounds nuw i8, ptr %8, i64 40
  store ptr @hf_rdp_flagsEncrypt, ptr %23, align 8
  %24 = getelementptr inbounds nuw i8, ptr %8, i64 48
  store i32 2, ptr %24, align 16
  %25 = getelementptr inbounds nuw i8, ptr %8, i64 52
  %26 = getelementptr inbounds nuw i8, ptr %8, i64 68
  call void @llvm.memset.p0.i64(ptr noundef nonnull align 4 dereferenceable(16) %25, i8 0, i64 16, i1 false)
  store i32 16, ptr %26, align 4
  %27 = getelementptr inbounds nuw i8, ptr %8, i64 72
  store ptr null, ptr %27, align 8
  %28 = getelementptr inbounds nuw i8, ptr %8, i64 80
  store ptr @hf_rdp_flagsResetSeqno, ptr %28, align 16
  %29 = getelementptr inbounds nuw i8, ptr %8, i64 88
  store i32 2, ptr %29, align 8
  %30 = getelementptr inbounds nuw i8, ptr %8, i64 92
  %31 = getelementptr inbounds nuw i8, ptr %8, i64 108
  call void @llvm.memset.p0.i64(ptr noundef nonnull align 4 dereferenceable(16) %30, i8 0, i64 16, i1 false)
  store i32 16, ptr %31, align 4
  %32 = getelementptr inbounds nuw i8, ptr %8, i64 112
  store ptr null, ptr %32, align 16
  %33 = getelementptr inbounds nuw i8, ptr %8, i64 120
  store ptr @hf_rdp_flagsIgnoreSeqno, ptr %33, align 8
  %34 = getelementptr inbounds nuw i8, ptr %8, i64 128
  store i32 2, ptr %34, align 16
  %35 = getelementptr inbounds nuw i8, ptr %8, i64 132
  %36 = getelementptr inbounds nuw i8, ptr %8, i64 148
  call void @llvm.memset.p0.i64(ptr noundef nonnull align 4 dereferenceable(16) %35, i8 0, i64 16, i1 false)
  store i32 16, ptr %36, align 4
  %37 = getelementptr inbounds nuw i8, ptr %8, i64 152
  store ptr null, ptr %37, align 8
  %38 = getelementptr inbounds nuw i8, ptr %8, i64 160
  store ptr @hf_rdp_flagsLicenseEncrypt, ptr %38, align 16
  %39 = getelementptr inbounds nuw i8, ptr %8, i64 168
  store i32 2, ptr %39, align 8
  %40 = getelementptr inbounds nuw i8, ptr %8, i64 172
  %41 = getelementptr inbounds nuw i8, ptr %8, i64 188
  call void @llvm.memset.p0.i64(ptr noundef nonnull align 4 dereferenceable(16) %40, i8 0, i64 16, i1 false)
  store i32 16, ptr %41, align 4
  %42 = getelementptr inbounds nuw i8, ptr %8, i64 192
  store ptr null, ptr %42, align 16
  %43 = getelementptr inbounds nuw i8, ptr %8, i64 200
  store ptr @hf_rdp_flagsSecureChecksum, ptr %43, align 8
  %44 = getelementptr inbounds nuw i8, ptr %8, i64 208
  store i32 2, ptr %44, align 16
  %45 = getelementptr inbounds nuw i8, ptr %8, i64 212
  %46 = getelementptr inbounds nuw i8, ptr %8, i64 228
  call void @llvm.memset.p0.i64(ptr noundef nonnull align 4 dereferenceable(16) %45, i8 0, i64 16, i1 false)
  store i32 16, ptr %46, align 4
  %47 = getelementptr inbounds nuw i8, ptr %8, i64 232
  store ptr null, ptr %47, align 8
  %48 = getelementptr inbounds nuw i8, ptr %8, i64 240
  store ptr @hf_rdp_flagsFlagsHiValid, ptr %48, align 16
  %49 = getelementptr inbounds nuw i8, ptr %8, i64 248
  store i32 2, ptr %49, align 8
  %50 = getelementptr inbounds nuw i8, ptr %8, i64 252
  %51 = getelementptr inbounds nuw i8, ptr %8, i64 268
  call void @llvm.memset.p0.i64(ptr noundef nonnull align 4 dereferenceable(16) %50, i8 0, i64 16, i1 false)
  store i32 16, ptr %51, align 4
  %52 = getelementptr inbounds nuw i8, ptr %8, i64 272
  call void @llvm.memset.p0.i64(ptr noundef nonnull align 16 dereferenceable(48) %52, i8 0, i64 48, i1 false)
  call void @llvm.lifetime.start.p0(i64 120, ptr nonnull %9) #14
  store ptr @hf_rdp_flags, ptr %9, align 16
  %53 = getelementptr inbounds nuw i8, ptr %9, i64 8
  store i32 2, ptr %53, align 8
  %54 = getelementptr inbounds nuw i8, ptr %9, i64 12
  store i32 0, ptr %54, align 4
  %55 = getelementptr inbounds nuw i8, ptr %9, i64 16
  store ptr null, ptr %55, align 16
  %56 = getelementptr inbounds nuw i8, ptr %9, i64 24
  %57 = load i32, ptr @ett_rdp_flags, align 4
  store i32 %57, ptr %56, align 8
  %58 = getelementptr inbounds nuw i8, ptr %9, i64 28
  store i32 32, ptr %58, align 4
  %59 = getelementptr inbounds nuw i8, ptr %9, i64 32
  store ptr %8, ptr %59, align 16
  %60 = getelementptr inbounds nuw i8, ptr %9, i64 40
  store ptr @hf_rdp_flagsHi, ptr %60, align 8
  %61 = getelementptr inbounds nuw i8, ptr %9, i64 48
  store i32 2, ptr %61, align 16
  %62 = getelementptr inbounds nuw i8, ptr %9, i64 52
  call void @llvm.memset.p0.i64(ptr noundef nonnull align 4 dereferenceable(68) %62, i8 0, i64 68, i1 false)
  %63 = call fastcc i32 @dissect_rdp_fields(ptr noundef %0, i32 noundef 0, ptr noundef %1, ptr noundef %2, ptr noundef nonnull %9, i32 noundef 0)
  %.not.i = icmp eq ptr %5, null
  br i1 %.not.i, label %dissect_rdp_basicSecurityHeader.exit, label %64

64:                                               ; preds = %16
  %65 = load i32, ptr %7, align 4
  store i32 %65, ptr %5, align 4
  br label %dissect_rdp_basicSecurityHeader.exit

dissect_rdp_basicSecurityHeader.exit:             ; preds = %16, %64
  call void @llvm.lifetime.end.p0(i64 120, ptr nonnull %9) #14
  call void @llvm.lifetime.end.p0(i64 320, ptr nonnull %8) #14
  call void @llvm.lifetime.end.p0(i64 4, ptr nonnull %7) #14
  br label %66

66:                                               ; preds = %dissect_rdp_basicSecurityHeader.exit, %13
  %.1 = phi i32 [ %63, %dissect_rdp_basicSecurityHeader.exit ], [ 0, %13 ]
  %67 = getelementptr inbounds nuw i8, ptr %3, i64 8
  %68 = load i32, ptr %67, align 8
  %69 = and i32 %68, 11
  %.not19 = icmp eq i32 %69, 0
  %70 = icmp eq i32 %68, 16
  %spec.select = select i1 %70, ptr %10, ptr null
  %.0 = select i1 %.not19, ptr %spec.select, ptr %11
  %.not20 = icmp eq ptr %.0, null
  br i1 %.not20, label %73, label %71

71:                                               ; preds = %66
  %72 = call fastcc i32 @dissect_rdp_fields(ptr noundef %0, i32 noundef %.1, ptr noundef %1, ptr noundef %2, ptr noundef nonnull %.0, i32 noundef 0)
  br label %73

73:                                               ; preds = %66, %71, %6
  %.016 = phi i32 [ %72, %71 ], [ %.1, %66 ], [ 0, %6 ]
  call void @llvm.lifetime.end.p0(i64 80, ptr nonnull %11) #14
  call void @llvm.lifetime.end.p0(i64 200, ptr nonnull %10) #14
  ret i32 %.016
}